#include <math.h>
#include <stdio.h>
#include <stdlib.h>
#include <string.h>


int main()
{
	int n,k;
	float x[100];
	double a,s,y;
	int i,j;
	scanf("%d",&k);
	for (i=1;i<=k;i++)
	{
		scanf("%d",&n);
		for (j=1;j<=n;j++)
			scanf("%f",&x[j]);
		a=0;
		y=0;
		for (j=1;j<=n;j++)
			a=a+x[j];
		a=a/n;
		for (j=1;j<=n;j++)
			y=y+(x[j]-a)*(x[j]-a);
		s=sqrt(y/n);
		printf("%.5lf\n",s);
	}
	return 0;
}

