; ModuleID = '38/1713.c'
source_filename = "38/1713.c"
target datalayout = "e-m:e-p270:32:32-p271:32:32-p272:64:64-i64:64-f80:128-n8:16:32:64-S128"
target triple = "x86_64-pc-linux-gnu"

@.str = private unnamed_addr constant [3 x i8] c"%d\00", align 1
@.str.1 = private unnamed_addr constant [3 x i8] c"%f\00", align 1
@.str.2 = private unnamed_addr constant [7 x i8] c"%.5lf\0A\00", align 1

; Function Attrs: noinline nounwind uwtable
define dso_local i32 @main() #0 {
  %1 = alloca i32, align 4
  %2 = alloca i32, align 4
  %3 = alloca i32, align 4
  %4 = alloca [100 x float], align 16
  %5 = alloca double, align 8
  %6 = alloca double, align 8
  %7 = alloca double, align 8
  %8 = alloca i32, align 4
  %9 = alloca i32, align 4
  store i32 0, i32* %1, align 4
  %10 = call i32 (i8*, ...) @__isoc99_scanf(i8* getelementptr inbounds ([3 x i8], [3 x i8]* @.str, i64 0, i64 0), i32* %3)
  store i32 1, i32* %8, align 4
  br label %11

11:                                               ; preds = %83, %0
  %12 = load i32, i32* %8, align 4
  %13 = load i32, i32* %3, align 4
  %14 = icmp sle i32 %12, %13
  br i1 %14, label %15, label %86

15:                                               ; preds = %11
  %16 = call i32 (i8*, ...) @__isoc99_scanf(i8* getelementptr inbounds ([3 x i8], [3 x i8]* @.str, i64 0, i64 0), i32* %2)
  store i32 1, i32* %9, align 4
  br label %17

17:                                               ; preds = %26, %15
  %18 = load i32, i32* %9, align 4
  %19 = load i32, i32* %2, align 4
  %20 = icmp sle i32 %18, %19
  br i1 %20, label %21, label %29

21:                                               ; preds = %17
  %22 = load i32, i32* %9, align 4
  %23 = sext i32 %22 to i64
  %24 = getelementptr inbounds [100 x float], [100 x float]* %4, i64 0, i64 %23
  %25 = call i32 (i8*, ...) @__isoc99_scanf(i8* getelementptr inbounds ([3 x i8], [3 x i8]* @.str.1, i64 0, i64 0), float* %24)
  br label %26

26:                                               ; preds = %21
  %27 = load i32, i32* %9, align 4
  %28 = add nsw i32 %27, 1
  store i32 %28, i32* %9, align 4
  br label %17

29:                                               ; preds = %17
  store double 0.000000e+00, double* %5, align 8
  store double 0.000000e+00, double* %7, align 8
  store i32 1, i32* %9, align 4
  br label %30

30:                                               ; preds = %42, %29
  %31 = load i32, i32* %9, align 4
  %32 = load i32, i32* %2, align 4
  %33 = icmp sle i32 %31, %32
  br i1 %33, label %34, label %45

34:                                               ; preds = %30
  %35 = load double, double* %5, align 8
  %36 = load i32, i32* %9, align 4
  %37 = sext i32 %36 to i64
  %38 = getelementptr inbounds [100 x float], [100 x float]* %4, i64 0, i64 %37
  %39 = load float, float* %38, align 4
  %40 = fpext float %39 to double
  %41 = fadd double %35, %40
  store double %41, double* %5, align 8
  br label %42

42:                                               ; preds = %34
  %43 = load i32, i32* %9, align 4
  %44 = add nsw i32 %43, 1
  store i32 %44, i32* %9, align 4
  br label %30

45:                                               ; preds = %30
  %46 = load double, double* %5, align 8
  %47 = load i32, i32* %2, align 4
  %48 = sitofp i32 %47 to double
  %49 = fdiv double %46, %48
  store double %49, double* %5, align 8
  store i32 1, i32* %9, align 4
  br label %50

50:                                               ; preds = %72, %45
  %51 = load i32, i32* %9, align 4
  %52 = load i32, i32* %2, align 4
  %53 = icmp sle i32 %51, %52
  br i1 %53, label %54, label %75

54:                                               ; preds = %50
  %55 = load double, double* %7, align 8
  %56 = load i32, i32* %9, align 4
  %57 = sext i32 %56 to i64
  %58 = getelementptr inbounds [100 x float], [100 x float]* %4, i64 0, i64 %57
  %59 = load float, float* %58, align 4
  %60 = fpext float %59 to double
  %61 = load double, double* %5, align 8
  %62 = fsub double %60, %61
  %63 = load i32, i32* %9, align 4
  %64 = sext i32 %63 to i64
  %65 = getelementptr inbounds [100 x float], [100 x float]* %4, i64 0, i64 %64
  %66 = load float, float* %65, align 4
  %67 = fpext float %66 to double
  %68 = load double, double* %5, align 8
  %69 = fsub double %67, %68
  %70 = fmul double %62, %69
  %71 = fadd double %55, %70
  store double %71, double* %7, align 8
  br label %72

72:                                               ; preds = %54
  %73 = load i32, i32* %9, align 4
  %74 = add nsw i32 %73, 1
  store i32 %74, i32* %9, align 4
  br label %50

75:                                               ; preds = %50
  %76 = load double, double* %7, align 8
  %77 = load i32, i32* %2, align 4
  %78 = sitofp i32 %77 to double
  %79 = fdiv double %76, %78
  %80 = call double @sqrt(double %79) #3
  store double %80, double* %6, align 8
  %81 = load double, double* %6, align 8
  %82 = call i32 (i8*, ...) @printf(i8* getelementptr inbounds ([7 x i8], [7 x i8]* @.str.2, i64 0, i64 0), double %81)
  br label %83

83:                                               ; preds = %75
  %84 = load i32, i32* %8, align 4
  %85 = add nsw i32 %84, 1
  store i32 %85, i32* %8, align 4
  br label %11

86:                                               ; preds = %11
  ret i32 0
}

declare dso_local i32 @__isoc99_scanf(i8*, ...) #1

; Function Attrs: nounwind
declare dso_local double @sqrt(double) #2

declare dso_local i32 @printf(i8*, ...) #1


!llvm.module.flags = !{!0}
!llvm.ident = !{!1}

!0 = !{i32 1, !"wchar_size", i32 4}
!1 = !{!"clang version 10.0.0-4ubuntu1 "}
